
ROM_RUN/echo.elf:     file format elf32-littlearm

Sections:
Idx Name          Size      VMA       LMA       File off  Algn
  0 .text         000008c4  00080000  00080000  00008000  2**2
                  CONTENTS, ALLOC, LOAD, READONLY, CODE
  1 .rodata       0000005c  000808c4  000808c4  000088c4  2**2
                  CONTENTS, ALLOC, LOAD, READONLY, DATA
  2 .bss.IRQ      00000004  00010000  00010000  00008000  2**2
                  ALLOC
  3 .bss.SWI      00000004  00010004  00010004  00008000  2**2
                  ALLOC
  4 .bss.FIQ      00000004  00010008  00010008  00008000  2**2
                  ALLOC
  5 .bss.UNDEF    00000004  0001000c  0001000c  00008000  2**2
                  ALLOC
  6 .bss.PABORT   00000004  00010010  00010010  00008000  2**2
                  ALLOC
  7 .bss.DABORT   00000004  00010014  00010014  00008000  2**2
                  ALLOC
  8 .comment      00000011  00000000  00000000  00008920  2**0
                  CONTENTS, READONLY
  9 .ARM.attributes 00000010  00000000  00000000  00008931  2**0
                  CONTENTS, READONLY
 10 .debug_aranges 00000040  00000000  00000000  00008948  2**3
                  CONTENTS, READONLY, DEBUGGING
 11 .debug_info   00000214  00000000  00000000  00008988  2**0
                  CONTENTS, READONLY, DEBUGGING
 12 .debug_abbrev 00000028  00000000  00000000  00008b9c  2**0
                  CONTENTS, READONLY, DEBUGGING
 13 .debug_line   00000189  00000000  00000000  00008bc4  2**0
                  CONTENTS, READONLY, DEBUGGING

Disassembly of section .text:

00080000 <_startup>:
   80000:	e59ff018 	ldr	pc, [pc, #24]	; 80020 <Reset_Address>
   80004:	e59ff018 	ldr	pc, [pc, #24]	; 80024 <Undef_Addr>
   80008:	e59ff018 	ldr	pc, [pc, #24]	; 80028 <SWI_Addr>
   8000c:	e59ff018 	ldr	pc, [pc, #24]	; 8002c <PAbt_Addr>
   80010:	e59ff018 	ldr	pc, [pc, #24]	; 80030 <DAbt_Addr>
   80014:	e1a00000 	nop			; (mov r0, r0)
   80018:	e59ff014 	ldr	pc, [pc, #20]	; 80034 <IRQ_Addr>
   8001c:	e59ff014 	ldr	pc, [pc, #20]	; 80038 <FIQ_Addr>

00080020 <Reset_Address>:
   80020:	0008003c 	.word	0x0008003c

00080024 <Undef_Addr>:
   80024:	0008019c 	.word	0x0008019c

00080028 <SWI_Addr>:
   80028:	00080168 	.word	0x00080168

0008002c <PAbt_Addr>:
   8002c:	000801d0 	.word	0x000801d0

00080030 <DAbt_Addr>:
   80030:	000801fc 	.word	0x000801fc

00080034 <IRQ_Addr>:
   80034:	000800f4 	.word	0x000800f4

00080038 <FIQ_Addr>:
   80038:	00080134 	.word	0x00080134

0008003c <Reset_Handler>:
   8003c:	e59f00d0 	ldr	r0, [pc, #208]	; 80114 <ADI_IRQ_Interrupt_Wrapper+0x20>
   80040:	e3a01001 	mov	r1, #1
   80044:	e5801404 	str	r1, [r0, #1028]	; 0x404
   80048:	e3a01000 	mov	r1, #0
   8004c:	e5801408 	str	r1, [r0, #1032]	; 0x408
   80050:	e3a010f4 	mov	r1, #244	; 0xf4
   80054:	e580140c 	str	r1, [r0, #1036]	; 0x40c
   80058:	e3a00a12 	mov	r0, #73728	; 0x12000
   8005c:	e321f0db 	msr	CPSR_c, #219	; 0xdb
   80060:	e1a0d000 	mov	sp, r0
   80064:	e2400004 	sub	r0, r0, #4
   80068:	e321f0d7 	msr	CPSR_c, #215	; 0xd7
   8006c:	e1a0d000 	mov	sp, r0
   80070:	e2400004 	sub	r0, r0, #4
   80074:	e321f0d1 	msr	CPSR_c, #209	; 0xd1
   80078:	e1a0d000 	mov	sp, r0
   8007c:	e2400080 	sub	r0, r0, #128	; 0x80
   80080:	e321f0d2 	msr	CPSR_c, #210	; 0xd2
   80084:	e1a0d000 	mov	sp, r0
   80088:	e2400080 	sub	r0, r0, #128	; 0x80
   8008c:	e321f0d3 	msr	CPSR_c, #211	; 0xd3
   80090:	e1a0d000 	mov	sp, r0
   80094:	e2400004 	sub	r0, r0, #4
   80098:	e321f010 	msr	CPSR_c, #16
   8009c:	e1a0d000 	mov	sp, r0
   800a0:	e3a00b01 	mov	r0, #1024	; 0x400
   800a4:	e04da000 	sub	sl, sp, r0
   800a8:	e59f1068 	ldr	r1, [pc, #104]	; 80118 <ADI_IRQ_Interrupt_Wrapper+0x24>
   800ac:	e59f2068 	ldr	r2, [pc, #104]	; 8011c <ADI_IRQ_Interrupt_Wrapper+0x28>
   800b0:	e59f3068 	ldr	r3, [pc, #104]	; 80120 <ADI_IRQ_Interrupt_Wrapper+0x2c>
   800b4:	e1520003 	cmp	r2, r3
   800b8:	0a000003 	beq	800cc <DataIsEmpty>

000800bc <LoopRel>:
   800bc:	e1520003 	cmp	r2, r3
   800c0:	34910004 	ldrcc	r0, [r1], #4
   800c4:	34820004 	strcc	r0, [r2], #4
   800c8:	3afffffb 	bcc	800bc <LoopRel>

000800cc <DataIsEmpty>:
   800cc:	e3a00000 	mov	r0, #0
   800d0:	e59f104c 	ldr	r1, [pc, #76]	; 80124 <ADI_IRQ_Interrupt_Wrapper+0x30>
   800d4:	e59f204c 	ldr	r2, [pc, #76]	; 80128 <ADI_IRQ_Interrupt_Wrapper+0x34>

000800d8 <LoopZI>:
   800d8:	e1510002 	cmp	r1, r2
   800dc:	34810004 	strcc	r0, [r1], #4
   800e0:	3afffffc 	bcc	800d8 <LoopZI>

000800e4 <Jump_To_Main>:
   800e4:	e28fe004 	add	lr, pc, #4
   800e8:	e59f003c 	ldr	r0, [pc, #60]	; 8012c <ADI_IRQ_Interrupt_Wrapper+0x38>
   800ec:	e12fff10 	bx	r0

000800f0 <__Return_from_Main>:
   800f0:	eafffffe 	b	800f0 <__Return_from_Main>

000800f4 <ADI_IRQ_Interrupt_Wrapper>:
   800f4:	e24ee004 	sub	lr, lr, #4
   800f8:	e92d500f 	push	{r0, r1, r2, r3, ip, lr}
   800fc:	e59f002c 	ldr	r0, [pc, #44]	; 80130 <ADI_IRQ_Interrupt_Wrapper+0x3c>
   80100:	e5900000 	ldr	r0, [r0]
   80104:	e3500000 	cmp	r0, #0
   80108:	11a0e00f 	movne	lr, pc
   8010c:	112fff10 	bxne	r0
   80110:	e8fd900f 	ldm	sp!, {r0, r1, r2, r3, ip, pc}^
   80114:	ffff0000 	.word	0xffff0000
   80118:	00080920 	.word	0x00080920
   8011c:	00010000 	.word	0x00010000
   80120:	00010000 	.word	0x00010000
   80124:	00010000 	.word	0x00010000
   80128:	00010018 	.word	0x00010018
   8012c:	00080360 	.word	0x00080360
   80130:	00010000 	.word	0x00010000

00080134 <ADI_FIQ_Interrupt_Setup>:
   80134:	e52dc004 	push	{ip}		; (str ip, [sp, #-4]!)
   80138:	e1a0c00d 	mov	ip, sp
   8013c:	e92dd80f 	push	{r0, r1, r2, r3, fp, ip, lr, pc}
   80140:	e59f301c 	ldr	r3, [pc, #28]	; 80164 <ADI_FIQ_Interrupt_Setup+0x30>
   80144:	e5933000 	ldr	r3, [r3]
   80148:	e3530000 	cmp	r3, #0
   8014c:	e24cb004 	sub	fp, ip, #4
   80150:	11a0e00f 	movne	lr, pc
   80154:	11a0f003 	movne	pc, r3
   80158:	e89d680f 	ldm	sp, {r0, r1, r2, r3, fp, sp, lr}
   8015c:	e8bd1000 	pop	{ip}
   80160:	e25ef004 	subs	pc, lr, #4
   80164:	00010008 	.word	0x00010008

00080168 <ADI_SWI_Interrupt_Setup>:
   80168:	e52dc004 	push	{ip}		; (str ip, [sp, #-4]!)
   8016c:	e1a0c00d 	mov	ip, sp
   80170:	e92dd80f 	push	{r0, r1, r2, r3, fp, ip, lr, pc}
   80174:	e59f301c 	ldr	r3, [pc, #28]	; 80198 <ADI_SWI_Interrupt_Setup+0x30>
   80178:	e5933000 	ldr	r3, [r3]
   8017c:	e3530000 	cmp	r3, #0
   80180:	e24cb004 	sub	fp, ip, #4
   80184:	11a0e00f 	movne	lr, pc
   80188:	11a0f003 	movne	pc, r3
   8018c:	e89d680f 	ldm	sp, {r0, r1, r2, r3, fp, sp, lr}
   80190:	e8bd1000 	pop	{ip}
   80194:	e1b0f00e 	movs	pc, lr
   80198:	00010004 	.word	0x00010004

0008019c <ADI_UNDEF_Interrupt_Setup>:
   8019c:	e52dc004 	push	{ip}		; (str ip, [sp, #-4]!)
   801a0:	e1a0c00d 	mov	ip, sp
   801a4:	e92dd80f 	push	{r0, r1, r2, r3, fp, ip, lr, pc}
   801a8:	e59f301c 	ldr	r3, [pc, #28]	; 801cc <ADI_UNDEF_Interrupt_Setup+0x30>
   801ac:	e5933000 	ldr	r3, [r3]
   801b0:	e3530000 	cmp	r3, #0
   801b4:	e24cb004 	sub	fp, ip, #4
   801b8:	11a0e00f 	movne	lr, pc
   801bc:	11a0f003 	movne	pc, r3
   801c0:	e89d680f 	ldm	sp, {r0, r1, r2, r3, fp, sp, lr}
   801c4:	e8bd1000 	pop	{ip}
   801c8:	e1b0f00e 	movs	pc, lr
   801cc:	0001000c 	.word	0x0001000c

000801d0 <ADI_PABORT_Interrupt_Setup>:
   801d0:	e1a0c00d 	mov	ip, sp
   801d4:	e92dd800 	push	{fp, ip, lr, pc}
   801d8:	e59f3018 	ldr	r3, [pc, #24]	; 801f8 <ADI_PABORT_Interrupt_Setup+0x28>
   801dc:	e5933000 	ldr	r3, [r3]
   801e0:	e3530000 	cmp	r3, #0
   801e4:	e24cb004 	sub	fp, ip, #4
   801e8:	089da800 	ldmeq	sp, {fp, sp, pc}
   801ec:	e1a0e00f 	mov	lr, pc
   801f0:	e1a0f003 	mov	pc, r3
   801f4:	e89da800 	ldm	sp, {fp, sp, pc}
   801f8:	00010010 	.word	0x00010010

000801fc <ADI_DABORT_Interrupt_Setup>:
   801fc:	e1a0c00d 	mov	ip, sp
   80200:	e92dd800 	push	{fp, ip, lr, pc}
   80204:	e59f3018 	ldr	r3, [pc, #24]	; 80224 <ADI_DABORT_Interrupt_Setup+0x28>
   80208:	e5933000 	ldr	r3, [r3]
   8020c:	e3530000 	cmp	r3, #0
   80210:	e24cb004 	sub	fp, ip, #4
   80214:	089da800 	ldmeq	sp, {fp, sp, pc}
   80218:	e1a0e00f 	mov	lr, pc
   8021c:	e1a0f003 	mov	pc, r3
   80220:	e89da800 	ldm	sp, {fp, sp, pc}
   80224:	00010014 	.word	0x00010014

00080228 <Delay>:
   80228:	e2500001 	subs	r0, r0, #1
   8022c:	2afffffd 	bcs	80228 <Delay>
   80230:	e1a0f00e 	mov	pc, lr

00080234 <InitADC>:
   80234:	e59f3034 	ldr	r3, [pc, #52]	; 80270 <InitADC+0x3c>
   80238:	e1a0c00d 	mov	ip, sp
   8023c:	e3a02020 	mov	r2, #32
   80240:	e92dd800 	push	{fp, ip, lr, pc}
   80244:	e59f0028 	ldr	r0, [pc, #40]	; 80274 <InitADC+0x40>
   80248:	e5832000 	str	r2, [r3]
   8024c:	e24cb004 	sub	fp, ip, #4
   80250:	ebfffff4 	bl	80228 <Delay>
   80254:	e59f301c 	ldr	r3, [pc, #28]	; 80278 <InitADC+0x44>
   80258:	e3a02c02 	mov	r2, #512	; 0x200
   8025c:	e5832000 	str	r2, [r3]
   80260:	e3a02001 	mov	r2, #1
   80264:	e24330a8 	sub	r3, r3, #168	; 0xa8
   80268:	e5832000 	str	r2, [r3]
   8026c:	e89da800 	ldm	sp, {fp, sp, pc}
   80270:	ffff0500 	.word	0xffff0500
   80274:	00009c40 	.word	0x00009c40
   80278:	ffff0534 	.word	0xffff0534

0008027c <ADC_convert>:
   8027c:	e59f3038 	ldr	r3, [pc, #56]	; 802bc <ADC_convert+0x40>
   80280:	e1a0c00d 	mov	ip, sp
   80284:	e92dd800 	push	{fp, ip, lr, pc}
   80288:	e3a020a3 	mov	r2, #163	; 0xa3
   8028c:	e4030004 	str	r0, [r3], #-4
   80290:	e5832000 	str	r2, [r3]
   80294:	e24cb004 	sub	fp, ip, #4
   80298:	e59f3020 	ldr	r3, [pc, #32]	; 802c0 <ADC_convert+0x44>
   8029c:	e5933000 	ldr	r3, [r3]
   802a0:	e3530000 	cmp	r3, #0
   802a4:	0afffffb 	beq	80298 <ADC_convert+0x1c>
   802a8:	e3a00e7d 	mov	r0, #2000	; 0x7d0
   802ac:	ebffffdd 	bl	80228 <Delay>
   802b0:	e59f300c 	ldr	r3, [pc, #12]	; 802c4 <ADC_convert+0x48>
   802b4:	e5930000 	ldr	r0, [r3]
   802b8:	e89da800 	ldm	sp, {fp, sp, pc}
   802bc:	ffff0504 	.word	0xffff0504
   802c0:	ffff050c 	.word	0xffff050c
   802c4:	ffff0510 	.word	0xffff0510

000802c8 <hex>:
   802c8:	e1a0c00d 	mov	ip, sp
   802cc:	e92dd830 	push	{r4, r5, fp, ip, lr, pc}
   802d0:	e24cb004 	sub	fp, ip, #4
   802d4:	e1a05000 	mov	r5, r0
   802d8:	e3a04007 	mov	r4, #7
   802dc:	e1a03104 	lsl	r3, r4, #2
   802e0:	e59f201c 	ldr	r2, [pc, #28]	; 80304 <hex+0x3c>
   802e4:	e1a03355 	asr	r3, r5, r3
   802e8:	e203300f 	and	r3, r3, #15
   802ec:	e7d20003 	ldrb	r0, [r2, r3]
   802f0:	e2444001 	sub	r4, r4, #1
   802f4:	eb0000d6 	bl	80654 <putc>
   802f8:	e3740001 	cmn	r4, #1
   802fc:	1afffff6 	bne	802dc <hex+0x14>
   80300:	e89da830 	ldm	sp, {r4, r5, fp, sp, pc}
   80304:	000808c4 	.word	0x000808c4

00080308 <nl>:
   80308:	e1a0c00d 	mov	ip, sp
   8030c:	e92dd800 	push	{fp, ip, lr, pc}
   80310:	e3a0000d 	mov	r0, #13
   80314:	e24cb004 	sub	fp, ip, #4
   80318:	eb0000cd 	bl	80654 <putc>
   8031c:	e3a0000a 	mov	r0, #10
   80320:	e89d6800 	ldm	sp, {fp, sp, lr}
   80324:	ea0000ca 	b	80654 <putc>

00080328 <Tmp>:
   80328:	e1a0c00d 	mov	ip, sp
   8032c:	e92dd800 	push	{fp, ip, lr, pc}
   80330:	e59f1024 	ldr	r1, [pc, #36]	; 8035c <Tmp+0x34>
   80334:	e24cb004 	sub	fp, ip, #4
   80338:	e1a00440 	asr	r0, r0, #8
   8033c:	eb000115 	bl	80798 <__divsi3>
   80340:	e0603280 	rsb	r3, r0, r0, lsl #5
   80344:	e0800103 	add	r0, r0, r3, lsl #2
   80348:	e0800100 	add	r0, r0, r0, lsl #2
   8034c:	e1a00500 	lsl	r0, r0, #10
   80350:	e1a00440 	asr	r0, r0, #8
   80354:	e2400c32 	sub	r0, r0, #12800	; 0x3200
   80358:	e89da800 	ldm	sp, {fp, sp, pc}
   8035c:	00000fff 	.word	0x00000fff

00080360 <main>:
   80360:	e1a0c00d 	mov	ip, sp
   80364:	e92dd830 	push	{r4, r5, fp, ip, lr, pc}
   80368:	e24cb004 	sub	fp, ip, #4
   8036c:	eb0000fe 	bl	8076c <InitFreq>
   80370:	eb00009c 	bl	805e8 <InitUart>
   80374:	ebffffae 	bl	80234 <InitADC>
   80378:	e59f3260 	ldr	r3, [pc, #608]	; 805e0 <main+0x280>
   8037c:	e3a0220f 	mov	r2, #-268435456	; 0xf0000000
   80380:	e5832000 	str	r2, [r3]
   80384:	eb0000a8 	bl	8062c <getc>
   80388:	e20040ff 	and	r4, r0, #255	; 0xff
   8038c:	e3540042 	cmp	r4, #66	; 0x42
   80390:	0a00004e 	beq	804d0 <main+0x170>
   80394:	ca00000d 	bgt	803d0 <main+0x70>
   80398:	e3540032 	cmp	r4, #50	; 0x32
   8039c:	0a000036 	beq	8047c <main+0x11c>
   803a0:	ca000004 	bgt	803b8 <main+0x58>
   803a4:	e3540030 	cmp	r4, #48	; 0x30
   803a8:	0a000017 	beq	8040c <main+0xac>
   803ac:	e3540031 	cmp	r4, #49	; 0x31
   803b0:	0a00002d 	beq	8046c <main+0x10c>
   803b4:	ea000083 	b	805c8 <main+0x268>
   803b8:	e3540034 	cmp	r4, #52	; 0x34
   803bc:	0a000037 	beq	804a0 <main+0x140>
   803c0:	ba000032 	blt	80490 <main+0x130>
   803c4:	e3540041 	cmp	r4, #65	; 0x41
   803c8:	0a000038 	beq	804b0 <main+0x150>
   803cc:	ea00007d 	b	805c8 <main+0x268>
   803d0:	e3540061 	cmp	r4, #97	; 0x61
   803d4:	0a000055 	beq	80530 <main+0x1d0>
   803d8:	ca000005 	bgt	803f4 <main+0x94>
   803dc:	e3540044 	cmp	r4, #68	; 0x44
   803e0:	0a00004a 	beq	80510 <main+0x1b0>
   803e4:	ba000041 	blt	804f0 <main+0x190>
   803e8:	e3540054 	cmp	r4, #84	; 0x54
   803ec:	0a000070 	beq	805b4 <main+0x254>
   803f0:	ea000074 	b	805c8 <main+0x268>
   803f4:	e3540063 	cmp	r4, #99	; 0x63
   803f8:	0a00005c 	beq	80570 <main+0x210>
   803fc:	ba000053 	blt	80550 <main+0x1f0>
   80400:	e3540064 	cmp	r4, #100	; 0x64
   80404:	0a000061 	beq	80590 <main+0x230>
   80408:	ea00006e 	b	805c8 <main+0x268>
   8040c:	e3a00040 	mov	r0, #64	; 0x40
   80410:	eb00008f 	bl	80654 <putc>
   80414:	e3a00000 	mov	r0, #0
   80418:	ebffff97 	bl	8027c <ADC_convert>
   8041c:	e1a05000 	mov	r5, r0
   80420:	ebffffa8 	bl	802c8 <hex>
   80424:	ebffffb7 	bl	80308 <nl>
   80428:	e3a0003a 	mov	r0, #58	; 0x3a
   8042c:	eb000088 	bl	80654 <putc>
   80430:	e1a00005 	mov	r0, r5
   80434:	ebffffbb 	bl	80328 <Tmp>
   80438:	e1a04000 	mov	r4, r0
   8043c:	ebffffa1 	bl	802c8 <hex>
   80440:	ebffffb0 	bl	80308 <nl>
   80444:	e3a0003a 	mov	r0, #58	; 0x3a
   80448:	eb000081 	bl	80654 <putc>
   8044c:	e1a00005 	mov	r0, r5
   80450:	eb0000bb 	bl	80744 <puti>
   80454:	ebffffab 	bl	80308 <nl>
   80458:	e3a0003a 	mov	r0, #58	; 0x3a
   8045c:	eb00007c 	bl	80654 <putc>
   80460:	e1a00004 	mov	r0, r4
   80464:	eb0000b6 	bl	80744 <puti>
   80468:	ea00005a 	b	805d8 <main+0x278>
   8046c:	e3a00040 	mov	r0, #64	; 0x40
   80470:	eb000077 	bl	80654 <putc>
   80474:	e3a00001 	mov	r0, #1
   80478:	ea000002 	b	80488 <main+0x128>
   8047c:	e3a00040 	mov	r0, #64	; 0x40
   80480:	eb000073 	bl	80654 <putc>
   80484:	e3a00002 	mov	r0, #2
   80488:	ebffff7b 	bl	8027c <ADC_convert>
   8048c:	ea00004b 	b	805c0 <main+0x260>
   80490:	e3a00040 	mov	r0, #64	; 0x40
   80494:	eb00006e 	bl	80654 <putc>
   80498:	e3a00003 	mov	r0, #3
   8049c:	eafffff9 	b	80488 <main+0x128>
   804a0:	e3a00040 	mov	r0, #64	; 0x40
   804a4:	eb00006a 	bl	80654 <putc>
   804a8:	e3a00004 	mov	r0, #4
   804ac:	eafffff5 	b	80488 <main+0x128>
   804b0:	e3a0002b 	mov	r0, #43	; 0x2b
   804b4:	eb000066 	bl	80654 <putc>
   804b8:	e1a00004 	mov	r0, r4
   804bc:	eb000064 	bl	80654 <putc>
   804c0:	e59f2118 	ldr	r2, [pc, #280]	; 805e0 <main+0x280>
   804c4:	e5923000 	ldr	r3, [r2]
   804c8:	e3833601 	orr	r3, r3, #1048576	; 0x100000
   804cc:	ea000036 	b	805ac <main+0x24c>
   804d0:	e3a0002b 	mov	r0, #43	; 0x2b
   804d4:	eb00005e 	bl	80654 <putc>
   804d8:	e1a00004 	mov	r0, r4
   804dc:	eb00005c 	bl	80654 <putc>
   804e0:	e59f20f8 	ldr	r2, [pc, #248]	; 805e0 <main+0x280>
   804e4:	e5923000 	ldr	r3, [r2]
   804e8:	e3833602 	orr	r3, r3, #2097152	; 0x200000
   804ec:	ea00002e 	b	805ac <main+0x24c>
   804f0:	e3a0002b 	mov	r0, #43	; 0x2b
   804f4:	eb000056 	bl	80654 <putc>
   804f8:	e3a00043 	mov	r0, #67	; 0x43
   804fc:	eb000054 	bl	80654 <putc>
   80500:	e59f20d8 	ldr	r2, [pc, #216]	; 805e0 <main+0x280>
   80504:	e5923000 	ldr	r3, [r2]
   80508:	e3833501 	orr	r3, r3, #4194304	; 0x400000
   8050c:	ea000026 	b	805ac <main+0x24c>
   80510:	e3a0002b 	mov	r0, #43	; 0x2b
   80514:	eb00004e 	bl	80654 <putc>
   80518:	e1a00004 	mov	r0, r4
   8051c:	eb00004c 	bl	80654 <putc>
   80520:	e59f20b8 	ldr	r2, [pc, #184]	; 805e0 <main+0x280>
   80524:	e5923000 	ldr	r3, [r2]
   80528:	e3833502 	orr	r3, r3, #8388608	; 0x800000
   8052c:	ea00001e 	b	805ac <main+0x24c>
   80530:	e3a0002d 	mov	r0, #45	; 0x2d
   80534:	eb000046 	bl	80654 <putc>
   80538:	e1a00004 	mov	r0, r4
   8053c:	eb000044 	bl	80654 <putc>
   80540:	e59f2098 	ldr	r2, [pc, #152]	; 805e0 <main+0x280>
   80544:	e5923000 	ldr	r3, [r2]
   80548:	e3c33601 	bic	r3, r3, #1048576	; 0x100000
   8054c:	ea000016 	b	805ac <main+0x24c>
   80550:	e3a0002d 	mov	r0, #45	; 0x2d
   80554:	eb00003e 	bl	80654 <putc>
   80558:	e3a00062 	mov	r0, #98	; 0x62
   8055c:	eb00003c 	bl	80654 <putc>
   80560:	e59f2078 	ldr	r2, [pc, #120]	; 805e0 <main+0x280>
   80564:	e5923000 	ldr	r3, [r2]
   80568:	e3c33602 	bic	r3, r3, #2097152	; 0x200000
   8056c:	ea00000e 	b	805ac <main+0x24c>
   80570:	e3a0002d 	mov	r0, #45	; 0x2d
   80574:	eb000036 	bl	80654 <putc>
   80578:	e1a00004 	mov	r0, r4
   8057c:	eb000034 	bl	80654 <putc>
   80580:	e59f2058 	ldr	r2, [pc, #88]	; 805e0 <main+0x280>
   80584:	e5923000 	ldr	r3, [r2]
   80588:	e3c33501 	bic	r3, r3, #4194304	; 0x400000
   8058c:	ea000006 	b	805ac <main+0x24c>
   80590:	e3a0002d 	mov	r0, #45	; 0x2d
   80594:	eb00002e 	bl	80654 <putc>
   80598:	e1a00004 	mov	r0, r4
   8059c:	eb00002c 	bl	80654 <putc>
   805a0:	e59f2038 	ldr	r2, [pc, #56]	; 805e0 <main+0x280>
   805a4:	e5923000 	ldr	r3, [r2]
   805a8:	e3c33502 	bic	r3, r3, #8388608	; 0x800000
   805ac:	e5823000 	str	r3, [r2]
   805b0:	ea000008 	b	805d8 <main+0x278>
   805b4:	e3a00040 	mov	r0, #64	; 0x40
   805b8:	eb000025 	bl	80654 <putc>
   805bc:	e59f0020 	ldr	r0, [pc, #32]	; 805e4 <main+0x284>
   805c0:	ebffff40 	bl	802c8 <hex>
   805c4:	ea000003 	b	805d8 <main+0x278>
   805c8:	e3a0003a 	mov	r0, #58	; 0x3a
   805cc:	eb000020 	bl	80654 <putc>
   805d0:	e1a00004 	mov	r0, r4
   805d4:	eb00001e 	bl	80654 <putc>
   805d8:	ebffff4a 	bl	80308 <nl>
   805dc:	eaffff68 	b	80384 <main+0x24>
   805e0:	fffff430 	.word	0xfffff430
   805e4:	12345678 	.word	0x12345678

000805e8 <InitUart>:
   805e8:	e59f3030 	ldr	r3, [pc, #48]	; 80620 <InitUart+0x38>
   805ec:	e59f1030 	ldr	r1, [pc, #48]	; 80624 <InitUart+0x3c>
   805f0:	e3a02011 	mov	r2, #17
   805f4:	e5832000 	str	r2, [r3]
   805f8:	e3a03080 	mov	r3, #128	; 0x80
   805fc:	e5813000 	str	r3, [r1]
   80600:	e59f3020 	ldr	r3, [pc, #32]	; 80628 <InitUart+0x40>
   80604:	e2822012 	add	r2, r2, #18
   80608:	e4832004 	str	r2, [r3], #4
   8060c:	e2422023 	sub	r2, r2, #35	; 0x23
   80610:	e5832000 	str	r2, [r3]
   80614:	e3a03003 	mov	r3, #3
   80618:	e5813000 	str	r3, [r1]
   8061c:	e1a0f00e 	mov	pc, lr
   80620:	fffff404 	.word	0xfffff404
   80624:	ffff070c 	.word	0xffff070c
   80628:	ffff0700 	.word	0xffff0700

0008062c <getc>:
   8062c:	e59f3018 	ldr	r3, [pc, #24]	; 8064c <getc+0x20>
   80630:	e5933000 	ldr	r3, [r3]
   80634:	e3130001 	tst	r3, #1
   80638:	0afffffb 	beq	8062c <getc>
   8063c:	e59f300c 	ldr	r3, [pc, #12]	; 80650 <getc+0x24>
   80640:	e5930000 	ldr	r0, [r3]
   80644:	e20000ff 	and	r0, r0, #255	; 0xff
   80648:	e1a0f00e 	mov	pc, lr
   8064c:	ffff0714 	.word	0xffff0714
   80650:	ffff0700 	.word	0xffff0700

00080654 <putc>:
   80654:	e20000ff 	and	r0, r0, #255	; 0xff
   80658:	e59f3014 	ldr	r3, [pc, #20]	; 80674 <putc+0x20>
   8065c:	e5933000 	ldr	r3, [r3]
   80660:	e3130040 	tst	r3, #64	; 0x40
   80664:	0afffffb 	beq	80658 <putc+0x4>
   80668:	e59f3008 	ldr	r3, [pc, #8]	; 80678 <putc+0x24>
   8066c:	e5830000 	str	r0, [r3]
   80670:	e1a0f00e 	mov	pc, lr
   80674:	ffff0714 	.word	0xffff0714
   80678:	ffff0700 	.word	0xffff0700

0008067c <puts>:
   8067c:	e1a0c00d 	mov	ip, sp
   80680:	e92dd810 	push	{r4, fp, ip, lr, pc}
   80684:	e1a04000 	mov	r4, r0
   80688:	e5d00000 	ldrb	r0, [r0]
   8068c:	e3500000 	cmp	r0, #0
   80690:	e24cb004 	sub	fp, ip, #4
   80694:	089da810 	ldmeq	sp, {r4, fp, sp, pc}
   80698:	ebffffed 	bl	80654 <putc>
   8069c:	e5d40000 	ldrb	r0, [r4]
   806a0:	e3500000 	cmp	r0, #0
   806a4:	1afffffb 	bne	80698 <puts+0x1c>
   806a8:	e89da810 	ldm	sp, {r4, fp, sp, pc}

000806ac <itoa>:
   806ac:	e2423002 	sub	r3, r2, #2
   806b0:	e3530022 	cmp	r3, #34	; 0x22
   806b4:	e1a0c00d 	mov	ip, sp
   806b8:	83a03000 	movhi	r3, #0
   806bc:	e92dd9f0 	push	{r4, r5, r6, r7, r8, fp, ip, lr, pc}
   806c0:	e24cb004 	sub	fp, ip, #4
   806c4:	e1a06002 	mov	r6, r2
   806c8:	e1a08001 	mov	r8, r1
   806cc:	85c13000 	strbhi	r3, [r1]
   806d0:	8a000018 	bhi	80738 <itoa+0x8c>
   806d4:	e1a04001 	mov	r4, r1
   806d8:	e1a07001 	mov	r7, r1
   806dc:	e1a01006 	mov	r1, r6
   806e0:	e1a05000 	mov	r5, r0
   806e4:	eb00002b 	bl	80798 <__divsi3>
   806e8:	e0030096 	mul	r3, r6, r0
   806ec:	e59f204c 	ldr	r2, [pc, #76]	; 80740 <itoa+0x94>
   806f0:	e0633005 	rsb	r3, r3, r5
   806f4:	e0833002 	add	r3, r3, r2
   806f8:	e5d33023 	ldrb	r3, [r3, #35]	; 0x23
   806fc:	e3500000 	cmp	r0, #0
   80700:	e4c43001 	strb	r3, [r4], #1
   80704:	1afffff4 	bne	806dc <itoa+0x30>
   80708:	e3550000 	cmp	r5, #0
   8070c:	b3a0302d 	movlt	r3, #45	; 0x2d
   80710:	b4c43001 	strblt	r3, [r4], #1
   80714:	e4440001 	strb	r0, [r4], #-1
   80718:	e1580004 	cmp	r8, r4
   8071c:	2a000005 	bcs	80738 <itoa+0x8c>
   80720:	e5d42000 	ldrb	r2, [r4]
   80724:	e5d73000 	ldrb	r3, [r7]
   80728:	e4443001 	strb	r3, [r4], #-1
   8072c:	e4c72001 	strb	r2, [r7], #1
   80730:	e1570004 	cmp	r7, r4
   80734:	eafffff8 	b	8071c <itoa+0x70>
   80738:	e1a00008 	mov	r0, r8
   8073c:	e89da9f0 	ldm	sp, {r4, r5, r6, r7, r8, fp, sp, pc}
   80740:	000808d8 	.word	0x000808d8

00080744 <puti>:
   80744:	e1a0c00d 	mov	ip, sp
   80748:	e92dd800 	push	{fp, ip, lr, pc}
   8074c:	e24cb004 	sub	fp, ip, #4
   80750:	e24dd020 	sub	sp, sp, #32
   80754:	e24b102c 	sub	r1, fp, #44	; 0x2c
   80758:	e3a02020 	mov	r2, #32
   8075c:	ebffffd2 	bl	806ac <itoa>
   80760:	ebffffc5 	bl	8067c <puts>
   80764:	e24bd00c 	sub	sp, fp, #12
   80768:	e89da800 	ldm	sp, {fp, sp, pc}

0008076c <InitFreq>:
   8076c:	e59f3020 	ldr	r3, [pc, #32]	; 80794 <InitFreq+0x28>
   80770:	e3a02001 	mov	r2, #1
   80774:	e5832000 	str	r2, [r3]
   80778:	e0822002 	add	r2, r2, r2
   8077c:	e2833004 	add	r3, r3, #4
   80780:	e5832000 	str	r2, [r3]
   80784:	e28220f2 	add	r2, r2, #242	; 0xf2
   80788:	e2833004 	add	r3, r3, #4
   8078c:	e5832000 	str	r2, [r3]
   80790:	e1a0f00e 	mov	pc, lr
   80794:	ffff0404 	.word	0xffff0404

00080798 <__divsi3>:
   80798:	e3510000 	cmp	r1, #0
   8079c:	e020c001 	eor	ip, r0, r1
   807a0:	0a000042 	beq	808b0 <__divsi3+0x118>
   807a4:	42611000 	rsbmi	r1, r1, #0
   807a8:	e2512001 	subs	r2, r1, #1
   807ac:	0a000027 	beq	80850 <__divsi3+0xb8>
   807b0:	e1b03000 	movs	r3, r0
   807b4:	42603000 	rsbmi	r3, r0, #0
   807b8:	e1530001 	cmp	r3, r1
   807bc:	9a000026 	bls	8085c <__divsi3+0xc4>
   807c0:	e1110002 	tst	r1, r2
   807c4:	0a000028 	beq	8086c <__divsi3+0xd4>
   807c8:	e311020e 	tst	r1, #-536870912	; 0xe0000000
   807cc:	01a01181 	lsleq	r1, r1, #3
   807d0:	03a02008 	moveq	r2, #8
   807d4:	13a02001 	movne	r2, #1
   807d8:	e3510201 	cmp	r1, #268435456	; 0x10000000
   807dc:	31510003 	cmpcc	r1, r3
   807e0:	31a01201 	lslcc	r1, r1, #4
   807e4:	31a02202 	lslcc	r2, r2, #4
   807e8:	3afffffa 	bcc	807d8 <__divsi3+0x40>
   807ec:	e3510102 	cmp	r1, #-2147483648	; 0x80000000
   807f0:	31510003 	cmpcc	r1, r3
   807f4:	31a01081 	lslcc	r1, r1, #1
   807f8:	31a02082 	lslcc	r2, r2, #1
   807fc:	3afffffa 	bcc	807ec <__divsi3+0x54>
   80800:	e3a00000 	mov	r0, #0
   80804:	e1530001 	cmp	r3, r1
   80808:	20433001 	subcs	r3, r3, r1
   8080c:	21800002 	orrcs	r0, r0, r2
   80810:	e15300a1 	cmp	r3, r1, lsr #1
   80814:	204330a1 	subcs	r3, r3, r1, lsr #1
   80818:	218000a2 	orrcs	r0, r0, r2, lsr #1
   8081c:	e1530121 	cmp	r3, r1, lsr #2
   80820:	20433121 	subcs	r3, r3, r1, lsr #2
   80824:	21800122 	orrcs	r0, r0, r2, lsr #2
   80828:	e15301a1 	cmp	r3, r1, lsr #3
   8082c:	204331a1 	subcs	r3, r3, r1, lsr #3
   80830:	218001a2 	orrcs	r0, r0, r2, lsr #3
   80834:	e3530000 	cmp	r3, #0
   80838:	11b02222 	lsrsne	r2, r2, #4
   8083c:	11a01221 	lsrne	r1, r1, #4
   80840:	1affffef 	bne	80804 <__divsi3+0x6c>
   80844:	e35c0000 	cmp	ip, #0
   80848:	42600000 	rsbmi	r0, r0, #0
   8084c:	e12fff1e 	bx	lr
   80850:	e13c0000 	teq	ip, r0
   80854:	42600000 	rsbmi	r0, r0, #0
   80858:	e12fff1e 	bx	lr
   8085c:	33a00000 	movcc	r0, #0
   80860:	01a00fcc 	asreq	r0, ip, #31
   80864:	03800001 	orreq	r0, r0, #1
   80868:	e12fff1e 	bx	lr
   8086c:	e3510801 	cmp	r1, #65536	; 0x10000
   80870:	21a01821 	lsrcs	r1, r1, #16
   80874:	23a02010 	movcs	r2, #16
   80878:	33a02000 	movcc	r2, #0
   8087c:	e3510c01 	cmp	r1, #256	; 0x100
   80880:	21a01421 	lsrcs	r1, r1, #8
   80884:	22822008 	addcs	r2, r2, #8
   80888:	e3510010 	cmp	r1, #16
   8088c:	21a01221 	lsrcs	r1, r1, #4
   80890:	22822004 	addcs	r2, r2, #4
   80894:	e3510004 	cmp	r1, #4
   80898:	82822003 	addhi	r2, r2, #3
   8089c:	908220a1 	addls	r2, r2, r1, lsr #1
   808a0:	e35c0000 	cmp	ip, #0
   808a4:	e1a00233 	lsr	r0, r3, r2
   808a8:	42600000 	rsbmi	r0, r0, #0
   808ac:	e12fff1e 	bx	lr
   808b0:	e52de004 	push	{lr}		; (str lr, [sp, #-4]!)
   808b4:	eb000001 	bl	808c0 <__div0>
   808b8:	e3a00000 	mov	r0, #0
   808bc:	e49df004 	pop	{pc}		; (ldr pc, [sp], #4)

000808c0 <__div0>:
   808c0:	e12fff1e 	bx	lr
