   1              		.file	"uart.c"
   2              		.section	.text.InitUart,"ax",%progbits
   3              		.align	2
   4              		.global	InitUart
   6              	InitUart:
   7              		@ args = 0, pretend = 0, frame = 0
   8              		@ frame_needed = 0, uses_anonymous_args = 0
   9              		@ link register save eliminated.
  10 0000 30309FE5 		ldr	r3, .L2
  11 0004 30109FE5 		ldr	r1, .L2+4
  12 0008 1120A0E3 		mov	r2, #17
  13 000c 002083E5 		str	r2, [r3, #0]
  14 0010 8030A0E3 		mov	r3, #128
  15 0014 003081E5 		str	r3, [r1, #0]
  16 0018 20309FE5 		ldr	r3, .L2+8
  17 001c 122082E2 		add	r2, r2, #18
  18 0020 042083E4 		str	r2, [r3], #4
  19 0024 232042E2 		sub	r2, r2, #35
  20 0028 002083E5 		str	r2, [r3, #0]
  21 002c 0330A0E3 		mov	r3, #3
  22              		@ lr needed for prologue
  23 0030 003081E5 		str	r3, [r1, #0]
  24 0034 0EF0A0E1 		mov	pc, lr
  25              	.L3:
  26              		.align	2
  27              	.L2:
  28 0038 04F4FFFF 		.word	-3068
  29 003c 0C07FFFF 		.word	-63732
  30 0040 0007FFFF 		.word	-63744
  32              		.section	.text.getc,"ax",%progbits
  33              		.align	2
  34              		.global	getc
  36              	getc:
  37              		@ args = 0, pretend = 0, frame = 0
  38              		@ frame_needed = 0, uses_anonymous_args = 0
  39              		@ link register save eliminated.
  40              		@ lr needed for prologue
  41              	.L5:
  42 0000 18309FE5 		ldr	r3, .L8
  43 0004 003093E5 		ldr	r3, [r3, #0]
  44 0008 010013E3 		tst	r3, #1
  45 000c FBFFFF0A 		beq	.L5
  46 0010 0C309FE5 		ldr	r3, .L8+4
  47 0014 000093E5 		ldr	r0, [r3, #0]
  48 0018 FF0000E2 		and	r0, r0, #255
  49 001c 0EF0A0E1 		mov	pc, lr
  50              	.L9:
  51              		.align	2
  52              	.L8:
  53 0020 1407FFFF 		.word	-63724
  54 0024 0007FFFF 		.word	-63744
  56              		.section	.text.putc,"ax",%progbits
  57              		.align	2
  58              		.global	putc
  60              	putc:
  61              		@ args = 0, pretend = 0, frame = 0
  62              		@ frame_needed = 0, uses_anonymous_args = 0
  63              		@ link register save eliminated.
  64              		@ lr needed for prologue
  65 0000 FF0000E2 		and	r0, r0, #255
  66              	.L11:
  67 0004 14309FE5 		ldr	r3, .L14
  68 0008 003093E5 		ldr	r3, [r3, #0]
  69 000c 400013E3 		tst	r3, #64
  70 0010 FBFFFF0A 		beq	.L11
  71 0014 08309FE5 		ldr	r3, .L14+4
  72 0018 000083E5 		str	r0, [r3, #0]
  73 001c 0EF0A0E1 		mov	pc, lr
  74              	.L15:
  75              		.align	2
  76              	.L14:
  77 0020 1407FFFF 		.word	-63724
  78 0024 0007FFFF 		.word	-63744
  80              		.section	.text.puts,"ax",%progbits
  81              		.align	2
  82              		.global	puts
  84              	puts:
  85              		@ args = 0, pretend = 0, frame = 0
  86              		@ frame_needed = 1, uses_anonymous_args = 0
  87 0000 0DC0A0E1 		mov	ip, sp
  88 0004 10D82DE9 		stmfd	sp!, {r4, fp, ip, lr, pc}
  89 0008 0040A0E1 		mov	r4, r0
  90 000c 0000D0E5 		ldrb	r0, [r0, #0]	@ zero_extendqisi2
  91 0010 000050E3 		cmp	r0, #0
  92 0014 04B04CE2 		sub	fp, ip, #-4294967292
  93 0018 10A89D08 		ldmeqfd	sp, {r4, fp, sp, pc}
  94              	.L19:
  95 001c FEFFFFEB 		bl	putc
  96 0020 0000D4E5 		ldrb	r0, [r4, #0]	@ zero_extendqisi2
  97 0024 000050E3 		cmp	r0, #0
  98 0028 FBFFFF1A 		bne	.L19
  99 002c 10A89DE8 		ldmfd	sp, {r4, fp, sp, pc}
 101              		.global	__divsi3
 102              		.section	.rodata.str1.4,"aMS",%progbits,1
 103              		.align	2
 104              	.LC0:
 105 0000 7A797877 		.ascii	"zyxwvutsrqponmlkjihgfedcba9876543210123456789abcdef"
 105      76757473 
 105      7271706F 
 105      6E6D6C6B 
 105      6A696867 
 106 0033 6768696A 		.ascii	"ghijklmnopqrstuvwxyz\000"
 106      6B6C6D6E 
 106      6F707172 
 106      73747576 
 106      7778797A 
 107              		.section	.text.itoa,"ax",%progbits
 108              		.align	2
 109              		.global	itoa
 111              	itoa:
 112              		@ args = 0, pretend = 0, frame = 0
 113              		@ frame_needed = 1, uses_anonymous_args = 0
 114 0000 023042E2 		sub	r3, r2, #2
 115 0004 220053E3 		cmp	r3, #34
 116 0008 0DC0A0E1 		mov	ip, sp
 117 000c 0030A083 		movhi	r3, #0
 118 0010 F0D92DE9 		stmfd	sp!, {r4, r5, r6, r7, r8, fp, ip, lr, pc}
 119 0014 04B04CE2 		sub	fp, ip, #-4294967292
 120 0018 0260A0E1 		mov	r6, r2
 121 001c 0180A0E1 		mov	r8, r1
 122 0020 0030C185 		strhib	r3, [r1, #0]
 123 0024 1800008A 		bhi	.L22
 124 0028 0140A0E1 		mov	r4, r1
 125 002c 0170A0E1 		mov	r7, r1
 126              	.L24:
 127 0030 0610A0E1 		mov	r1, r6
 128 0034 0050A0E1 		mov	r5, r0
 129 0038 FEFFFFEB 		bl	__divsi3
 130 003c 960003E0 		mul	r3, r6, r0
 131 0040 4C209FE5 		ldr	r2, .L34
 132 0044 053063E0 		rsb	r3, r3, r5
 133 0048 023083E0 		add	r3, r3, r2
 134 004c 2330D3E5 		ldrb	r3, [r3, #35]	@ zero_extendqisi2
 135 0050 000050E3 		cmp	r0, #0
 136 0054 0130C4E4 		strb	r3, [r4], #1
 137 0058 F4FFFF1A 		bne	.L24
 138 005c 000055E3 		cmp	r5, #0
 139 0060 2D30A0B3 		movlt	r3, #45
 140 0064 0130C4B4 		strltb	r3, [r4], #1
 141 0068 010044E4 		strb	r0, [r4], #-1
 142 006c 040058E1 		cmp	r8, r4
 143              	.L33:
 144 0070 0500002A 		bcs	.L22
 145 0074 0020D4E5 		ldrb	r2, [r4, #0]	@ zero_extendqisi2
 146 0078 0030D7E5 		ldrb	r3, [r7, #0]	@ zero_extendqisi2
 147 007c 013044E4 		strb	r3, [r4], #-1
 148 0080 0120C7E4 		strb	r2, [r7], #1
 149 0084 040057E1 		cmp	r7, r4
 150 0088 F8FFFFEA 		b	.L33
 151              	.L22:
 152 008c 0800A0E1 		mov	r0, r8
 153 0090 F0A99DE8 		ldmfd	sp, {r4, r5, r6, r7, r8, fp, sp, pc}
 154              	.L35:
 155              		.align	2
 156              	.L34:
 157 0094 00000000 		.word	.LC0
 159              		.section	.text.puti,"ax",%progbits
 160              		.align	2
 161              		.global	puti
 163              	puti:
 164              		@ args = 0, pretend = 0, frame = 32
 165              		@ frame_needed = 1, uses_anonymous_args = 0
 166 0000 0DC0A0E1 		mov	ip, sp
 167 0004 00D82DE9 		stmfd	sp!, {fp, ip, lr, pc}
 168 0008 04B04CE2 		sub	fp, ip, #-4294967292
 169 000c 20D04DE2 		sub	sp, sp, #32
 170 0010 2C104BE2 		sub	r1, fp, #-4294967252
 171 0014 2020A0E3 		mov	r2, #32
 172 0018 FEFFFFEB 		bl	itoa
 173 001c FEFFFFEB 		bl	puts
 174 0020 0CD04BE2 		sub	sp, fp, #12
 175 0024 00A89DE8 		ldmfd	sp, {fp, sp, pc}
 177              		.ident	"GCC: (GNU) 3.4.6"